; Function Attrs: nounwind uwtable
define hidden i32 @X509_NAME_entry_count(ptr noundef readonly captures(address_is_null) %0) local_unnamed_addr #0 {
  %2 = icmp eq ptr %0, null
  br i1 %2, label %7, label %3

3:                                                ; preds = %1
  %4 = load ptr, ptr %0, align 8, !tbaa !6
  %5 = tail call i64 @sk_num(ptr noundef %4) #7
  %6 = trunc i64 %5 to i32
  br label %7

7:                                                ; preds = %1, %3
  %.0 = phi i32 [ %6, %3 ], [ 0, %1 ]
  ret i32 %.0
}